target datalayout = "e-m:e-p270:32:32-p271:32:32-p272:64:64-i64:64-i128:128-f80:128-n8:16:32:64-S128"
target triple = "x86_64-pc-linux-gnu"

%struct.git_istream = type { ptr, ptr, ptr, i64, %struct.git_zstream, i32, %union.anon }
%struct.git_zstream = type { %struct.z_stream_s, i64, i64, i64, i64, ptr, ptr }
%struct.z_stream_s = type { ptr, i32, i64, ptr, i32, i64, ptr, ptr, ptr, ptr, ptr, i32, i64, i64 }
%union.anon = type { %struct.filtered_istream }
%struct.filtered_istream = type { ptr, ptr, [16384 x i8], [16384 x i8], i32, i32, i32, i32, i32 }
%struct.anon.0 = type { ptr, i64, [32 x i8], i32, i32 }

; Function Attrs: nounwind uwtable
define internal i64 @read_istream_loose(ptr noundef %0, ptr noundef %1, i64 noundef %2) #0 {
  %4 = alloca i64, align 8
  %5 = alloca ptr, align 8
  %6 = alloca ptr, align 8
  %7 = alloca i64, align 8
  %8 = alloca i64, align 8
  %9 = alloca i32, align 4
  %10 = alloca i64, align 8
  %11 = alloca i32, align 4
  store ptr %0, ptr %5, align 8, !tbaa !4
  store ptr %1, ptr %6, align 8, !tbaa !87
  store i64 %2, ptr %7, align 8, !tbaa !19
  call void @llvm.lifetime.start.p0(i64 8, ptr %8) #8
  store i64 0, ptr %8, align 8, !tbaa !19
  %12 = load ptr, ptr %5, align 8, !tbaa !4
  %13 = getelementptr inbounds nuw %struct.git_istream, ptr %12, i32 0, i32 5
  %14 = load i32, ptr %13, align 8, !tbaa !84
  switch i32 %14, label %17 [
    i32 2, label %15
    i32 3, label %16
  ]

15:                                               ; preds = %3
  store i64 0, ptr %4, align 8
  store i32 1, ptr %9, align 4
  br label %125

16:                                               ; preds = %3
  store i64 -1, ptr %4, align 8
  store i32 1, ptr %9, align 4
  br label %125

17:                                               ; preds = %3
  br label %18

18:                                               ; preds = %17
  %19 = load ptr, ptr %5, align 8, !tbaa !4
  %20 = getelementptr inbounds nuw %struct.git_istream, ptr %19, i32 0, i32 6
  %21 = getelementptr inbounds nuw %struct.anon.0, ptr %20, i32 0, i32 4
  %22 = load i32, ptr %21, align 4, !tbaa !69
  %23 = load ptr, ptr %5, align 8, !tbaa !4
  %24 = getelementptr inbounds nuw %struct.git_istream, ptr %23, i32 0, i32 6
  %25 = getelementptr inbounds nuw %struct.anon.0, ptr %24, i32 0, i32 3
  %26 = load i32, ptr %25, align 8, !tbaa !69
  %27 = icmp slt i32 %22, %26
  br i1 %27, label %28, label %68

28:                                               ; preds = %18
  call void @llvm.lifetime.start.p0(i64 8, ptr %10) #8
  %29 = load ptr, ptr %5, align 8, !tbaa !4
  %30 = getelementptr inbounds nuw %struct.git_istream, ptr %29, i32 0, i32 6
  %31 = getelementptr inbounds nuw %struct.anon.0, ptr %30, i32 0, i32 3
  %32 = load i32, ptr %31, align 8, !tbaa !69
  %33 = load ptr, ptr %5, align 8, !tbaa !4
  %34 = getelementptr inbounds nuw %struct.git_istream, ptr %33, i32 0, i32 6
  %35 = getelementptr inbounds nuw %struct.anon.0, ptr %34, i32 0, i32 4
  %36 = load i32, ptr %35, align 4, !tbaa !69
  %37 = sub nsw i32 %32, %36
  %38 = sext i32 %37 to i64
  store i64 %38, ptr %10, align 8, !tbaa !19
  %39 = load i64, ptr %7, align 8, !tbaa !19
  %40 = load i64, ptr %10, align 8, !tbaa !19
  %41 = icmp ult i64 %39, %40
  br i1 %41, label %42, label %44

42:                                               ; preds = %28
  %43 = load i64, ptr %7, align 8, !tbaa !19
  store i64 %43, ptr %10, align 8, !tbaa !19
  br label %44

44:                                               ; preds = %42, %28
  %45 = load ptr, ptr %6, align 8, !tbaa !87
  %46 = load ptr, ptr %5, align 8, !tbaa !4
  %47 = getelementptr inbounds nuw %struct.git_istream, ptr %46, i32 0, i32 6
  %48 = getelementptr inbounds nuw %struct.anon.0, ptr %47, i32 0, i32 2
  %49 = getelementptr inbounds [32 x i8], ptr %48, i64 0, i64 0
  %50 = load ptr, ptr %5, align 8, !tbaa !4
  %51 = getelementptr inbounds nuw %struct.git_istream, ptr %50, i32 0, i32 6
  %52 = getelementptr inbounds nuw %struct.anon.0, ptr %51, i32 0, i32 4
  %53 = load i32, ptr %52, align 4, !tbaa !69
  %54 = sext i32 %53 to i64
  %55 = getelementptr inbounds i8, ptr %49, i64 %54
  %56 = load i64, ptr %10, align 8, !tbaa !19
  call void @llvm.memcpy.p0.p0.i64(ptr align 1 %45, ptr align 1 %55, i64 %56, i1 false)
  %57 = load i64, ptr %10, align 8, !tbaa !19
  %58 = load ptr, ptr %5, align 8, !tbaa !4
  %59 = getelementptr inbounds nuw %struct.git_istream, ptr %58, i32 0, i32 6
  %60 = getelementptr inbounds nuw %struct.anon.0, ptr %59, i32 0, i32 4
  %61 = load i32, ptr %60, align 4, !tbaa !69
  %62 = sext i32 %61 to i64
  %63 = add i64 %62, %57
  %64 = trunc i64 %63 to i32
  store i32 %64, ptr %60, align 4, !tbaa !69
  %65 = load i64, ptr %10, align 8, !tbaa !19
  %66 = load i64, ptr %8, align 8, !tbaa !19
  %67 = add i64 %66, %65
  store i64 %67, ptr %8, align 8, !tbaa !19
  call void @llvm.lifetime.end.p0(i64 8, ptr %10) #8
  br label %68

68:                                               ; preds = %44, %18
  br label %69

69:                                               ; preds = %122, %68
  %70 = load i64, ptr %8, align 8, !tbaa !19
  %71 = load i64, ptr %7, align 8, !tbaa !19
  %72 = icmp ult i64 %70, %71
  br i1 %72, label %73, label %123

73:                                               ; preds = %69
  call void @llvm.lifetime.start.p0(i64 4, ptr %11) #8
  %74 = load ptr, ptr %6, align 8, !tbaa !87
  %75 = load i64, ptr %8, align 8, !tbaa !19
  %76 = getelementptr inbounds nuw i8, ptr %74, i64 %75
  %77 = load ptr, ptr %5, align 8, !tbaa !4
  %78 = getelementptr inbounds nuw %struct.git_istream, ptr %77, i32 0, i32 4
  %79 = getelementptr inbounds nuw %struct.git_zstream, ptr %78, i32 0, i32 6
  store ptr %76, ptr %79, align 8, !tbaa !88
  %80 = load i64, ptr %7, align 8, !tbaa !19
  %81 = load i64, ptr %8, align 8, !tbaa !19
  %82 = sub i64 %80, %81
  %83 = load ptr, ptr %5, align 8, !tbaa !4
  %84 = getelementptr inbounds nuw %struct.git_istream, ptr %83, i32 0, i32 4
  %85 = getelementptr inbounds nuw %struct.git_zstream, ptr %84, i32 0, i32 2
  store i64 %82, ptr %85, align 8, !tbaa !89
  %86 = load ptr, ptr %5, align 8, !tbaa !4
  %87 = getelementptr inbounds nuw %struct.git_istream, ptr %86, i32 0, i32 4
  %88 = call i32 @git_inflate(ptr noundef %87, i32 noundef 4)
  store i32 %88, ptr %11, align 4, !tbaa !17
  %89 = load ptr, ptr %5, align 8, !tbaa !4
  %90 = getelementptr inbounds nuw %struct.git_istream, ptr %89, i32 0, i32 4
  %91 = getelementptr inbounds nuw %struct.git_zstream, ptr %90, i32 0, i32 6
  %92 = load ptr, ptr %91, align 8, !tbaa !88
  %93 = load ptr, ptr %6, align 8, !tbaa !87
  %94 = ptrtoint ptr %92 to i64
  %95 = ptrtoint ptr %93 to i64
  %96 = sub i64 %94, %95
  store i64 %96, ptr %8, align 8, !tbaa !19
  %97 = load i32, ptr %11, align 4, !tbaa !17
  %98 = icmp eq i32 %97, 1
  br i1 %98, label %99, label %104

99:                                               ; preds = %73
  %100 = load ptr, ptr %5, align 8, !tbaa !4
  %101 = getelementptr inbounds nuw %struct.git_istream, ptr %100, i32 0, i32 4
  call void @git_inflate_end(ptr noundef %101)
  %102 = load ptr, ptr %5, align 8, !tbaa !4
  %103 = getelementptr inbounds nuw %struct.git_istream, ptr %102, i32 0, i32 5
  store i32 2, ptr %103, align 8, !tbaa !84
  store i32 4, ptr %9, align 4
  br label %120

104:                                              ; preds = %73
  %105 = load i32, ptr %11, align 4, !tbaa !17
  %106 = icmp ne i32 %105, 0
  br i1 %106, label %107, label %119

107:                                              ; preds = %104
  %108 = load i32, ptr %11, align 4, !tbaa !17
  %109 = icmp ne i32 %108, -5
  br i1 %109, label %114, label %110

110:                                              ; preds = %107
  %111 = load i64, ptr %8, align 8, !tbaa !19
  %112 = load i64, ptr %7, align 8, !tbaa !19
  %113 = icmp ult i64 %111, %112
  br i1 %113, label %114, label %119

114:                                              ; preds = %110, %107
  %115 = load ptr, ptr %5, align 8, !tbaa !4
  %116 = getelementptr inbounds nuw %struct.git_istream, ptr %115, i32 0, i32 4
  call void @git_inflate_end(ptr noundef %116)
  %117 = load ptr, ptr %5, align 8, !tbaa !4
  %118 = getelementptr inbounds nuw %struct.git_istream, ptr %117, i32 0, i32 5
  store i32 3, ptr %118, align 8, !tbaa !84
  store i64 -1, ptr %4, align 8
  store i32 1, ptr %9, align 4
  br label %120

119:                                              ; preds = %110, %104
  store i32 0, ptr %9, align 4
  br label %120

120:                                              ; preds = %119, %114, %99
  call void @llvm.lifetime.end.p0(i64 4, ptr %11) #8
  %121 = load i32, ptr %9, align 4
  switch i32 %121, label %125 [
    i32 0, label %122
    i32 4, label %123
  ]

122:                                              ; preds = %120
  br label %69, !llvm.loop !90

123:                                              ; preds = %120, %69
  %124 = load i64, ptr %8, align 8, !tbaa !19
  store i64 %124, ptr %4, align 8
  store i32 1, ptr %9, align 4
  br label %125

125:                                              ; preds = %123, %120, %16, %15
  call void @llvm.lifetime.end.p0(i64 8, ptr %8) #8
  %126 = load i64, ptr %4, align 8
  ret i64 %126
}