; Function Attrs: nounwind uwtable
define internal i64 @read_istream_loose(ptr noundef %0, ptr noundef %1, i64 noundef %2) #0 {
  %4 = getelementptr inbounds nuw i8, ptr %0, i64 192
  %5 = load i32, ptr %4, align 8, !tbaa !72
  switch i32 %5, label %7 [
    i32 2, label %.loopexit
    i32 3, label %6
  ]

6:                                                ; preds = %3
  br label %.loopexit

7:                                                ; preds = %3
  %8 = getelementptr inbounds nuw i8, ptr %0, i64 252
  %9 = load i32, ptr %8, align 4, !tbaa !56
  %10 = getelementptr inbounds nuw i8, ptr %0, i64 248
  %11 = load i32, ptr %10, align 8, !tbaa !56
  %12 = icmp slt i32 %9, %11
  br i1 %12, label %13, label %22

13:                                               ; preds = %7
  %14 = sub nsw i32 %11, %9
  %15 = sext i32 %14 to i64
  %spec.select = tail call i64 @llvm.umin.i64(i64 %2, i64 %15)
  %16 = getelementptr inbounds nuw i8, ptr %0, i64 216
  %17 = sext i32 %9 to i64
  %18 = getelementptr inbounds i8, ptr %16, i64 %17
  tail call void @llvm.memcpy.p0.p0.i64(ptr align 1 %1, ptr nonnull align 1 %18, i64 %spec.select, i1 false)
  %19 = load i32, ptr %8, align 4, !tbaa !56
  %20 = trunc i64 %spec.select to i32
  %21 = add i32 %19, %20
  store i32 %21, ptr %8, align 4, !tbaa !56
  br label %22

22:                                               ; preds = %13, %7
  %.040 = phi i64 [ %spec.select, %13 ], [ 0, %7 ]
  %23 = icmp ult i64 %.040, %2
  br i1 %23, label %.lr.ph, label %.loopexit

.lr.ph:                                           ; preds = %22
  %24 = getelementptr inbounds nuw i8, ptr %0, i64 32
  %25 = getelementptr inbounds nuw i8, ptr %0, i64 184
  %26 = getelementptr inbounds nuw i8, ptr %0, i64 152
  %27 = ptrtoint ptr %1 to i64
  br label %28

28:                                               ; preds = %.lr.ph, %37
  %.14158 = phi i64 [ %.040, %.lr.ph ], [ %34, %37 ]
  %29 = getelementptr inbounds nuw i8, ptr %1, i64 %.14158
  store ptr %29, ptr %25, align 8, !tbaa !75
  %30 = sub nuw i64 %2, %.14158
  store i64 %30, ptr %26, align 8, !tbaa !76
  %31 = tail call i32 @git_inflate(ptr noundef nonnull %24, i32 noundef 4) #11
  %32 = load ptr, ptr %25, align 8, !tbaa !75
  %33 = ptrtoint ptr %32 to i64
  %34 = sub i64 %33, %27
  switch i32 %31, label %.thread [
    i32 1, label %39
    i32 0, label %37
    i32 -5, label %35
  ]

35:                                               ; preds = %28
  %36 = icmp ult i64 %34, %2
  br i1 %36, label %.thread, label %37

.thread:                                          ; preds = %35, %28
  tail call void @git_inflate_end(ptr noundef nonnull %24) #11
  store i32 3, ptr %4, align 8, !tbaa !72
  br label %.loopexit

37:                                               ; preds = %35, %28
  %38 = icmp ult i64 %34, %2
  br i1 %38, label %28, label %.loopexit

39:                                               ; preds = %28
  tail call void @git_inflate_end(ptr noundef nonnull %24) #11
  store i32 2, ptr %4, align 8, !tbaa !72
  br label %.loopexit

.loopexit:                                        ; preds = %37, %22, %.thread, %3, %39, %6
  %.0 = phi i64 [ -1, %6 ], [ 0, %3 ], [ %34, %39 ], [ -1, %.thread ], [ %.040, %22 ], [ %34, %37 ]
  ret i64 %.0
}